target datalayout = "e-m:e-p270:32:32-p271:32:32-p272:64:64-i64:64-i128:128-f80:128-n8:16:32:64-S128"
target triple = "x86_64-pc-linux-gnu"

%struct.pmix_class_t = type { ptr, ptr, ptr, ptr, i32, i32, ptr, ptr, i64 }
%struct.pmix_pointer_array_t = type { %struct.pmix_object_t, i32, i32, i32, i32, i32, ptr, ptr }
%struct.pmix_object_t = type { %union.pthread_mutex_t, ptr, i32, %struct.pmix_tma }
%union.pthread_mutex_t = type { %struct.__pthread_mutex_s }
%struct.__pthread_mutex_s = type { i32, i32, i32, i32, i32, i16, i16, %struct.__pthread_internal_list }
%struct.__pthread_internal_list = type { ptr, ptr }
%struct.pmix_tma = type { ptr, ptr, ptr, ptr, ptr, ptr, ptr, ptr }
%struct.pmix_hash_table_t = type { %struct.pmix_object_t, ptr, ptr, i64, i64, i64, i32, i32, i32, i32, ptr }

@pmix_mca_base_var_group_initialized = internal global i8 0, align 1
@pmix_class_init_epoch = external global i32, align 4
@pmix_pointer_array_t_class = external global %struct.pmix_class_t, align 8
@pmix_mca_base_var_groups = internal global %struct.pmix_pointer_array_t zeroinitializer, align 8
@pmix_hash_table_t_class = external global %struct.pmix_class_t, align 8
@pmix_mca_base_var_group_index_hash = internal global %struct.pmix_hash_table_t zeroinitializer, align 8
@pmix_mca_base_var_group_count = internal global i32 0, align 4

; Function Attrs: inlinehint nounwind uwtable
define internal void @pmix_obj_run_constructors(ptr noundef %0) #3 {
  %2 = alloca ptr, align 8
  %3 = alloca ptr, align 8
  store ptr %0, ptr %2, align 8, !tbaa !32
  call void @llvm.lifetime.start.p0(i64 8, ptr %3) #14
  %4 = load ptr, ptr %2, align 8, !tbaa !32
  %5 = getelementptr inbounds nuw %struct.pmix_object_t, ptr %4, i32 0, i32 1
  %6 = load ptr, ptr %5, align 8, !tbaa !15
  %7 = getelementptr inbounds nuw %struct.pmix_class_t, ptr %6, i32 0, i32 6
  %8 = load ptr, ptr %7, align 8, !tbaa !46
  store ptr %8, ptr %3, align 8, !tbaa !45
  br label %9

9:                                                ; preds = %13, %1
  %10 = load ptr, ptr %3, align 8, !tbaa !45
  %11 = load ptr, ptr %10, align 8, !tbaa !45
  %12 = icmp ne ptr null, %11
  br i1 %12, label %13, label %19

13:                                               ; preds = %9
  %14 = load ptr, ptr %3, align 8, !tbaa !45
  %15 = load ptr, ptr %14, align 8, !tbaa !45
  %16 = load ptr, ptr %2, align 8, !tbaa !32
  call void %15(ptr noundef %16)
  %17 = load ptr, ptr %3, align 8, !tbaa !45
  %18 = getelementptr inbounds nuw ptr, ptr %17, i32 1
  store ptr %18, ptr %3, align 8, !tbaa !45
  br label %9, !llvm.loop !47

19:                                               ; preds = %9
  call void @llvm.lifetime.end.p0(i64 8, ptr %3) #14
  ret void
}

; Function Attrs: inlinehint nounwind uwtable
define internal void @pmix_obj_construct_tma(ptr noundef %0, ptr noundef %1) #3 {
  %3 = alloca ptr, align 8
  %4 = alloca ptr, align 8
  store ptr %0, ptr %3, align 8, !tbaa !32
  store ptr %1, ptr %4, align 8, !tbaa !34
  %5 = load ptr, ptr %4, align 8, !tbaa !34
  %6 = icmp eq ptr null, %5
  br i1 %6, label %7, label %32

7:                                                ; preds = %2
  %8 = load ptr, ptr %3, align 8, !tbaa !32
  %9 = getelementptr inbounds nuw %struct.pmix_object_t, ptr %8, i32 0, i32 3
  %10 = getelementptr inbounds nuw %struct.pmix_tma, ptr %9, i32 0, i32 0
  store ptr null, ptr %10, align 8, !tbaa !36
  %11 = load ptr, ptr %3, align 8, !tbaa !32
  %12 = getelementptr inbounds nuw %struct.pmix_object_t, ptr %11, i32 0, i32 3
  %13 = getelementptr inbounds nuw %struct.pmix_tma, ptr %12, i32 0, i32 1
  store ptr null, ptr %13, align 8, !tbaa !37
  %14 = load ptr, ptr %3, align 8, !tbaa !32
  %15 = getelementptr inbounds nuw %struct.pmix_object_t, ptr %14, i32 0, i32 3
  %16 = getelementptr inbounds nuw %struct.pmix_tma, ptr %15, i32 0, i32 2
  store ptr null, ptr %16, align 8, !tbaa !38
  %17 = load ptr, ptr %3, align 8, !tbaa !32
  %18 = getelementptr inbounds nuw %struct.pmix_object_t, ptr %17, i32 0, i32 3
  %19 = getelementptr inbounds nuw %struct.pmix_tma, ptr %18, i32 0, i32 3
  store ptr null, ptr %19, align 8, !tbaa !39
  %20 = load ptr, ptr %3, align 8, !tbaa !32
  %21 = getelementptr inbounds nuw %struct.pmix_object_t, ptr %20, i32 0, i32 3
  %22 = getelementptr inbounds nuw %struct.pmix_tma, ptr %21, i32 0, i32 4
  store ptr null, ptr %22, align 8, !tbaa !40
  %23 = load ptr, ptr %3, align 8, !tbaa !32
  %24 = getelementptr inbounds nuw %struct.pmix_object_t, ptr %23, i32 0, i32 3
  %25 = getelementptr inbounds nuw %struct.pmix_tma, ptr %24, i32 0, i32 5
  store ptr null, ptr %25, align 8, !tbaa !41
  %26 = load ptr, ptr %3, align 8, !tbaa !32
  %27 = getelementptr inbounds nuw %struct.pmix_object_t, ptr %26, i32 0, i32 3
  %28 = getelementptr inbounds nuw %struct.pmix_tma, ptr %27, i32 0, i32 6
  store ptr null, ptr %28, align 8, !tbaa !42
  %29 = load ptr, ptr %3, align 8, !tbaa !32
  %30 = getelementptr inbounds nuw %struct.pmix_object_t, ptr %29, i32 0, i32 3
  %31 = getelementptr inbounds nuw %struct.pmix_tma, ptr %30, i32 0, i32 7
  store ptr null, ptr %31, align 8, !tbaa !43
  br label %36

32:                                               ; preds = %2
  %33 = load ptr, ptr %3, align 8, !tbaa !32
  %34 = getelementptr inbounds nuw %struct.pmix_object_t, ptr %33, i32 0, i32 3
  %35 = load ptr, ptr %4, align 8, !tbaa !34
  call void @llvm.memcpy.p0.p0.i64(ptr align 8 %34, ptr align 8 %35, i64 64, i1 false), !tbaa.struct !44
  br label %36

36:                                               ; preds = %32, %7
  ret void
}

; Function Attrs: nounwind uwtable
define i32 @pmix_mca_base_var_group_init() #0 {
  %1 = alloca i32, align 4
  %2 = alloca i32, align 4
  %3 = alloca i32, align 4
  call void @llvm.lifetime.start.p0(i64 4, ptr %2) #14
  %4 = load i8, ptr @pmix_mca_base_var_group_initialized, align 1, !tbaa !29, !range !30, !noundef !31
  %5 = trunc i8 %4 to i1
  br i1 %5, label %47, label %6

6:                                                ; preds = %0
  br label %7

7:                                                ; preds = %6
  br label %8

8:                                                ; preds = %7
  br label %9

9:                                                ; preds = %8
  %10 = load i32, ptr @pmix_class_init_epoch, align 4, !tbaa !8
  %11 = load i32, ptr getelementptr inbounds nuw (%struct.pmix_class_t, ptr @pmix_pointer_array_t_class, i32 0, i32 4), align 8, !tbaa !10
  %12 = icmp ne i32 %10, %11
  br i1 %12, label %13, label %14

13:                                               ; preds = %9
  call void @pmix_class_initialize(ptr noundef @pmix_pointer_array_t_class)
  br label %14

14:                                               ; preds = %13, %9
  store ptr @pmix_pointer_array_t_class, ptr getelementptr inbounds nuw (%struct.pmix_object_t, ptr @pmix_mca_base_var_groups, i32 0, i32 1), align 8, !tbaa !15
  store i32 1, ptr getelementptr inbounds nuw (%struct.pmix_object_t, ptr @pmix_mca_base_var_groups, i32 0, i32 2), align 8, !tbaa !18
  call void @pmix_obj_construct_tma(ptr noundef @pmix_mca_base_var_groups, ptr noundef null)
  call void @pmix_obj_run_constructors(ptr noundef @pmix_mca_base_var_groups)
  br label %15

15:                                               ; preds = %14
  br label %16

16:                                               ; preds = %15
  br label %17

17:                                               ; preds = %16
  br label %18

18:                                               ; preds = %17
  br label %19

19:                                               ; preds = %18
  br label %20

20:                                               ; preds = %19
  %21 = call i32 @pmix_pointer_array_init(ptr noundef @pmix_mca_base_var_groups, i32 noundef 128, i32 noundef 16384, i32 noundef 128)
  store i32 %21, ptr %2, align 4, !tbaa !8
  %22 = load i32, ptr %2, align 4, !tbaa !8
  %23 = icmp ne i32 0, %22
  br i1 %23, label %24, label %26

24:                                               ; preds = %20
  %25 = load i32, ptr %2, align 4, !tbaa !8
  store i32 %25, ptr %1, align 4
  store i32 1, ptr %3, align 4
  br label %48

26:                                               ; preds = %20
  br label %27

27:                                               ; preds = %26
  br label %28

28:                                               ; preds = %27
  br label %29

29:                                               ; preds = %28
  %30 = load i32, ptr @pmix_class_init_epoch, align 4, !tbaa !8
  %31 = load i32, ptr getelementptr inbounds nuw (%struct.pmix_class_t, ptr @pmix_hash_table_t_class, i32 0, i32 4), align 8, !tbaa !10
  %32 = icmp ne i32 %30, %31
  br i1 %32, label %33, label %34

33:                                               ; preds = %29
  call void @pmix_class_initialize(ptr noundef @pmix_hash_table_t_class)
  br label %34

34:                                               ; preds = %33, %29
  store ptr @pmix_hash_table_t_class, ptr getelementptr inbounds nuw (%struct.pmix_object_t, ptr @pmix_mca_base_var_group_index_hash, i32 0, i32 1), align 8, !tbaa !15
  store i32 1, ptr getelementptr inbounds nuw (%struct.pmix_object_t, ptr @pmix_mca_base_var_group_index_hash, i32 0, i32 2), align 8, !tbaa !18
  call void @pmix_obj_construct_tma(ptr noundef @pmix_mca_base_var_group_index_hash, ptr noundef null)
  call void @pmix_obj_run_constructors(ptr noundef @pmix_mca_base_var_group_index_hash)
  br label %35

35:                                               ; preds = %34
  br label %36

36:                                               ; preds = %35
  br label %37

37:                                               ; preds = %36
  br label %38

38:                                               ; preds = %37
  br label %39

39:                                               ; preds = %38
  br label %40

40:                                               ; preds = %39
  %41 = call i32 @pmix_hash_table_init(ptr noundef @pmix_mca_base_var_group_index_hash, i64 noundef 256)
  store i32 %41, ptr %2, align 4, !tbaa !8
  %42 = load i32, ptr %2, align 4, !tbaa !8
  %43 = icmp ne i32 0, %42
  br i1 %43, label %44, label %46

44:                                               ; preds = %40
  %45 = load i32, ptr %2, align 4, !tbaa !8
  store i32 %45, ptr %1, align 4
  store i32 1, ptr %3, align 4
  br label %48

46:                                               ; preds = %40
  store i8 1, ptr @pmix_mca_base_var_group_initialized, align 1, !tbaa !29
  store i32 0, ptr @pmix_mca_base_var_group_count, align 4, !tbaa !8
  br label %47

47:                                               ; preds = %46, %0
  store i32 0, ptr %1, align 4
  store i32 1, ptr %3, align 4
  br label %48

48:                                               ; preds = %47, %44, %24
  call void @llvm.lifetime.end.p0(i64 4, ptr %2) #14
  %49 = load i32, ptr %1, align 4
  ret i32 %49
}