; Function Attrs: nounwind uwtable
define i32 @pmix_mca_base_var_group_init() local_unnamed_addr #0 {
  %.b7 = load i1, ptr @pmix_mca_base_var_group_initialized, align 1
  br i1 %.b7, label %24, label %1

1:                                                ; preds = %0
  %2 = load i32, ptr @pmix_class_init_epoch, align 4, !tbaa !3
  %3 = load i32, ptr getelementptr inbounds nuw (i8, ptr @pmix_pointer_array_t_class, i64 32), align 8, !tbaa !7
  %.not = icmp eq i32 %2, %3
  br i1 %.not, label %5, label %4

4:                                                ; preds = %1
  tail call void @pmix_class_initialize(ptr noundef nonnull @pmix_pointer_array_t_class) #17
  br label %5

5:                                                ; preds = %4, %1
  store ptr @pmix_pointer_array_t_class, ptr getelementptr inbounds nuw (i8, ptr @pmix_mca_base_var_groups, i64 40), align 8, !tbaa !13
  store i32 1, ptr getelementptr inbounds nuw (i8, ptr @pmix_mca_base_var_groups, i64 48), align 8, !tbaa !16
  tail call void @llvm.memset.p0.i64(ptr noundef nonnull align 8 dereferenceable(64) getelementptr inbounds nuw (i8, ptr @pmix_mca_base_var_groups, i64 56), i8 0, i64 64, i1 false)
  %6 = load ptr, ptr getelementptr inbounds nuw (i8, ptr @pmix_pointer_array_t_class, i64 40), align 8, !tbaa !17
  %7 = load ptr, ptr %6, align 8, !tbaa !18
  %.not6.i = icmp eq ptr %7, null
  br i1 %.not6.i, label %pmix_obj_run_constructors.exit, label %.lr.ph.i

.lr.ph.i:                                         ; preds = %5, %.lr.ph.i
  %8 = phi ptr [ %10, %.lr.ph.i ], [ %7, %5 ]
  %.07.i = phi ptr [ %9, %.lr.ph.i ], [ %6, %5 ]
  tail call void %8(ptr noundef nonnull @pmix_mca_base_var_groups) #17
  %9 = getelementptr inbounds nuw i8, ptr %.07.i, i64 8
  %10 = load ptr, ptr %9, align 8, !tbaa !18
  %.not.i = icmp eq ptr %10, null
  br i1 %.not.i, label %pmix_obj_run_constructors.exit, label %.lr.ph.i, !llvm.loop !19

pmix_obj_run_constructors.exit:                   ; preds = %.lr.ph.i, %5
  %11 = tail call i32 @pmix_pointer_array_init(ptr noundef nonnull @pmix_mca_base_var_groups, i32 noundef 128, i32 noundef 16384, i32 noundef 128) #17
  %.not8 = icmp eq i32 %11, 0
  br i1 %.not8, label %12, label %24

12:                                               ; preds = %pmix_obj_run_constructors.exit
  %13 = load i32, ptr @pmix_class_init_epoch, align 4, !tbaa !3
  %14 = load i32, ptr getelementptr inbounds nuw (i8, ptr @pmix_hash_table_t_class, i64 32), align 8, !tbaa !7
  %.not9 = icmp eq i32 %13, %14
  br i1 %.not9, label %16, label %15

15:                                               ; preds = %12
  tail call void @pmix_class_initialize(ptr noundef nonnull @pmix_hash_table_t_class) #17
  br label %16

16:                                               ; preds = %15, %12
  store ptr @pmix_hash_table_t_class, ptr getelementptr inbounds nuw (i8, ptr @pmix_mca_base_var_group_index_hash, i64 40), align 8, !tbaa !13
  store i32 1, ptr getelementptr inbounds nuw (i8, ptr @pmix_mca_base_var_group_index_hash, i64 48), align 8, !tbaa !16
  tail call void @llvm.memset.p0.i64(ptr noundef nonnull align 8 dereferenceable(64) getelementptr inbounds nuw (i8, ptr @pmix_mca_base_var_group_index_hash, i64 56), i8 0, i64 64, i1 false)
  %17 = load ptr, ptr getelementptr inbounds nuw (i8, ptr @pmix_hash_table_t_class, i64 40), align 8, !tbaa !17
  %18 = load ptr, ptr %17, align 8, !tbaa !18
  %.not6.i11 = icmp eq ptr %18, null
  br i1 %.not6.i11, label %pmix_obj_run_constructors.exit15, label %.lr.ph.i12

.lr.ph.i12:                                       ; preds = %16, %.lr.ph.i12
  %19 = phi ptr [ %21, %.lr.ph.i12 ], [ %18, %16 ]
  %.07.i13 = phi ptr [ %20, %.lr.ph.i12 ], [ %17, %16 ]
  tail call void %19(ptr noundef nonnull @pmix_mca_base_var_group_index_hash) #17
  %20 = getelementptr inbounds nuw i8, ptr %.07.i13, i64 8
  %21 = load ptr, ptr %20, align 8, !tbaa !18
  %.not.i14 = icmp eq ptr %21, null
  br i1 %.not.i14, label %pmix_obj_run_constructors.exit15, label %.lr.ph.i12, !llvm.loop !19

pmix_obj_run_constructors.exit15:                 ; preds = %.lr.ph.i12, %16
  %22 = tail call i32 @pmix_hash_table_init(ptr noundef nonnull @pmix_mca_base_var_group_index_hash, i64 noundef 256) #17
  %.not10 = icmp eq i32 %22, 0
  br i1 %.not10, label %23, label %24

23:                                               ; preds = %pmix_obj_run_constructors.exit15
  store i1 true, ptr @pmix_mca_base_var_group_initialized, align 1
  store i32 0, ptr @pmix_mca_base_var_group_count, align 4, !tbaa !3
  br label %24

24:                                               ; preds = %0, %23, %pmix_obj_run_constructors.exit15, %pmix_obj_run_constructors.exit
  %.0 = phi i32 [ %11, %pmix_obj_run_constructors.exit ], [ %22, %pmix_obj_run_constructors.exit15 ], [ 0, %23 ], [ 0, %0 ]
  ret i32 %.0
}